target datalayout = "e-m:e-p270:32:32-p271:32:32-p272:64:64-i64:64-i128:128-f80:128-n8:16:32:64-S128"
target triple = "x86_64-pc-linux-gnu"

%struct.btInfMaskConverter = type { %union.anon }
%union.anon = type { float }

$_ZN18btInfMaskConverterC2Ei = comdat any

@_ZL14btInfinityMask = internal global %struct.btInfMaskConverter zeroinitializer, align 4
@_ZTV12btDispatcher = dso_local unnamed_addr constant { [18 x ptr] } { [18 x ptr] [ptr null, ptr @_ZTI12btDispatcher, ptr @_ZN12btDispatcherD1Ev, ptr @_ZN12btDispatcherD0Ev, ptr @__cxa_pure_virtual, ptr @__cxa_pure_virtual, ptr @__cxa_pure_virtual, ptr @__cxa_pure_virtual, ptr @__cxa_pure_virtual, ptr @__cxa_pure_virtual, ptr @__cxa_pure_virtual, ptr @__cxa_pure_virtual, ptr @__cxa_pure_virtual, ptr @__cxa_pure_virtual, ptr @__cxa_pure_virtual, ptr @__cxa_pure_virtual, ptr @__cxa_pure_virtual, ptr @__cxa_pure_virtual] }, align 8
@_ZTI12btDispatcher = dso_local constant { ptr, ptr } { ptr getelementptr inbounds (ptr, ptr @_ZTVN10__cxxabiv117__class_type_infoE, i64 2), ptr @_ZTS12btDispatcher }, align 8
@_ZTVN10__cxxabiv117__class_type_infoE = external global [0 x ptr]
@_ZTS12btDispatcher = dso_local constant [15 x i8] c"12btDispatcher\00", align 1
@llvm.global_ctors = appending global [1 x { i32, ptr, ptr }] [{ i32, ptr, ptr } { i32 65535, ptr @_GLOBAL__sub_I_btDispatcher.cpp, ptr null }]

@_ZN12btDispatcherD1Ev = dso_local unnamed_addr alias void (ptr), ptr @_ZN12btDispatcherD2Ev

; Function Attrs: uwtable
define internal void @__cxx_global_var_init() #0 section ".text.startup" {
  call void @_ZN18btInfMaskConverterC2Ei(ptr noundef nonnull align 4 dereferenceable(4) @_ZL14btInfinityMask, i32 noundef 2139095040)
  ret void
}

; Function Attrs: mustprogress nounwind uwtable
define linkonce_odr dso_local void @_ZN18btInfMaskConverterC2Ei(ptr noundef nonnull align 4 dereferenceable(4) %0, i32 noundef %1) unnamed_addr #1 comdat align 2 {
  %3 = alloca ptr, align 8
  %4 = alloca i32, align 4
  store ptr %0, ptr %3, align 8, !tbaa !4
  store i32 %1, ptr %4, align 4, !tbaa !9
  %5 = load ptr, ptr %3, align 8
  %6 = getelementptr inbounds nuw %struct.btInfMaskConverter, ptr %5, i32 0, i32 0
  %7 = load i32, ptr %4, align 4, !tbaa !9
  store i32 %7, ptr %6, align 4, !tbaa !11
  ret void
}

; Function Attrs: mustprogress nounwind uwtable
define dso_local void @_ZN12btDispatcherD2Ev(ptr noundef nonnull align 8 dereferenceable(8) %0) unnamed_addr #1 align 2 {
  %2 = alloca ptr, align 8
  store ptr %0, ptr %2, align 8, !tbaa !12
  ret void
}

; Function Attrs: mustprogress nounwind uwtable
define dso_local void @_ZN12btDispatcherD0Ev(ptr noundef nonnull align 8 dereferenceable(8) %0) unnamed_addr #1 align 2 {
  %2 = alloca ptr, align 8
  store ptr %0, ptr %2, align 8, !tbaa !12
  call void @llvm.trap() #3
  unreachable
}

; Function Attrs: cold noreturn nounwind memory(inaccessiblemem: write)
declare void @llvm.trap() #2

declare void @__cxa_pure_virtual() unnamed_addr

; Function Attrs: uwtable
define internal void @_GLOBAL__sub_I_btDispatcher.cpp() #0 section ".text.startup" {
  call void @__cxx_global_var_init()
  ret void
}


!llvm.module.flags = !{!0, !1, !2, !3}

!0 = !{i32 1, !"wchar_size", i32 4}
!1 = !{i32 8, !"PIC Level", i32 2}
!2 = !{i32 7, !"PIE Level", i32 2}
!3 = !{i32 7, !"uwtable", i32 2}
!4 = !{!5, !5, i64 0}
!5 = !{!"p1 _ZTS18btInfMaskConverter", !6, i64 0}
!6 = !{!"any pointer", !7, i64 0}
!7 = !{!"omnipotent char", !8, i64 0}
!8 = !{!"Simple C++ TBAA"}
!9 = !{!10, !10, i64 0}
!10 = !{!"int", !7, i64 0}
!11 = !{!7, !7, i64 0}
!12 = !{!13, !13, i64 0}
!13 = !{!"p1 _ZTS12btDispatcher", !6, i64 0}
